; Function Attrs: nounwind uwtable
define internal void @cleanup3_doall(ptr noundef %0) #0 {
  %2 = getelementptr inbounds nuw i8, ptr %0, i64 8
  %3 = load ptr, ptr %2, align 8, !tbaa !9
  %4 = getelementptr inbounds nuw i8, ptr %3, i64 16
  %5 = load i32, ptr %4, align 8, !tbaa !13
  %6 = add nsw i32 %5, -1
  store i32 %6, ptr %4, align 8, !tbaa !13
  %7 = icmp eq i32 %6, 0
  br i1 %7, label %8, label %9

8:                                                ; preds = %1
  tail call void @ASN1_OBJECT_free(ptr noundef nonnull %3) #10
  br label %9

9:                                                ; preds = %8, %1
  tail call void @CRYPTO_free(ptr noundef nonnull %0, ptr noundef nonnull @.str, i32 noundef 208) #10
  ret void
}